; Function Attrs: mustprogress uwtable
define void @_ZN17MLRenderingActionC2EiP7QObject(ptr noundef nonnull align 8 dereferenceable(16) %0, i32 noundef %1, ptr noundef %2) unnamed_addr #9 align 2 personality ptr @__gxx_personality_v0 {
  %4 = alloca %class.QVariant, align 8
  tail call void @_ZN7QActionC2EP7QObject(ptr noundef nonnull align 8 dereferenceable(16) %0, ptr noundef %2)
  store ptr getelementptr inbounds ({ [19 x ptr] }, ptr @_ZTV17MLRenderingAction, i64 0, i32 0, i64 2), ptr %0, align 8
  invoke void @_ZN7QAction12setCheckableEb(ptr noundef nonnull align 8 dereferenceable(16) %0, i1 noundef zeroext true)
          to label %5 unwind label %10

5:                                                ; preds = %3
  invoke void @_ZN7QAction10setCheckedEb(ptr noundef nonnull align 8 dereferenceable(16) %0, i1 noundef zeroext false)
          to label %6 unwind label %10

6:                                                ; preds = %5
  call void @llvm.lifetime.start.p0(i64 16, ptr nonnull %4)
  invoke void @_ZN8QVariantC1Ei(ptr noundef nonnull align 8 dereferenceable(16) %4, i32 noundef %1)
          to label %.noexc unwind label %10

.noexc:                                           ; preds = %6
  invoke void @_ZN7QAction7setDataERK8QVariant(ptr noundef nonnull align 8 dereferenceable(16) %0, ptr noundef nonnull align 8 dereferenceable(16) %4)
          to label %9 unwind label %7

7:                                                ; preds = %.noexc
  %8 = landingpad { ptr, i32 }
          cleanup
  call void @_ZN8QVariantD1Ev(ptr noundef nonnull align 8 dereferenceable(16) %4) #21
  br label %.body

9:                                                ; preds = %.noexc
  call void @_ZN8QVariantD1Ev(ptr noundef nonnull align 8 dereferenceable(16) %4) #21
  call void @llvm.lifetime.end.p0(i64 16, ptr nonnull %4)
  ret void

10:                                               ; preds = %6, %5, %3
  %11 = landingpad { ptr, i32 }
          cleanup
  br label %.body

.body:                                            ; preds = %7, %10
  %eh.lpad-body = phi { ptr, i32 } [ %11, %10 ], [ %8, %7 ]
  call void @_ZN7QActionD2Ev(ptr noundef nonnull align 8 dereferenceable(16) %0) #21
  resume { ptr, i32 } %eh.lpad-body
}